target datalayout = "e-m:e-p270:32:32-p271:32:32-p272:64:64-i64:64-i128:128-f80:128-n8:16:32:64-S128"
target triple = "x86_64-unknown-linux-gnu"

%struct.QemuMutex = type { %union.pthread_mutex_t, i8 }
%union.pthread_mutex_t = type { %struct.__pthread_mutex_s }
%struct.__pthread_mutex_s = type { i32, i32, i32, i32, i32, i16, i16, %struct.__pthread_internal_list }
%struct.__pthread_internal_list = type { ptr, ptr }
%struct.QemuEvent = type { i32, i8 }
%struct.QemuThread = type { i64 }
%struct.QemuSemaphore = type { %struct.QemuMutex, %struct.QemuCond, i32 }
%struct.QemuCond = type { %union.pthread_cond_t, i8 }
%union.pthread_cond_t = type { %struct.__pthread_cond_s }
%struct.__pthread_cond_s = type { %union.__atomic_wide_counter, %union.__atomic_wide_counter, [2 x i32], [2 x i32], i32, i32, [2 x i32] }
%union.__atomic_wide_counter = type { i64 }
%struct.Object = type { ptr, ptr, ptr, i32, ptr }
%struct.MigrationState = type { %struct.DeviceState, %struct.QemuThread, ptr, ptr, ptr, ptr, %struct.QemuSemaphore, ptr, %struct.QemuMutex, %struct.QemuSemaphore, i64, double, i64, i64, i64, %struct.MigrationParameters, i32, %struct.anon.6, double, i64, i64, i64, i64, i64, [23 x i8], i64, i32, i8, i8, i8, i8, %struct.QemuSemaphore, %struct.QemuSemaphore, %struct.QemuSemaphore, %struct.QemuEvent, i64, ptr, ptr, %struct.QemuMutex, i8, i8, i8, i8, %struct.QemuSemaphore, i8, i8, i8, i8, ptr, ptr, i8, i8 }
%struct.DeviceState = type { %struct.Object, ptr, ptr, i8, i8, i64, ptr, i32, i8, ptr, %struct.NamedGPIOListHead, %struct.NamedClockListHead, %struct.BusStateHead, i32, i32, i32, %struct.ResettableState, ptr, %struct.MemReentrancyGuard }
%struct.NamedGPIOListHead = type { ptr }
%struct.NamedClockListHead = type { ptr }
%struct.BusStateHead = type { ptr }
%struct.ResettableState = type { i32, i8, i8 }
%struct.MemReentrancyGuard = type { i8 }
%struct.MigrationParameters = type { i8, i64, i8, i64, i8, i64, i8, i64, i8, i8, i8, i8, i8, i8, i8, i8, i8, i8, i8, i8, i8, i8, i8, i8, ptr, ptr, ptr, i8, i64, i8, i64, i8, i64, i8, i32, i8, i8, i8, i8, i8, i64, i8, i64, i8, i8, i8, i32, i8, i8, i8, i8, i8, ptr, i8, i64, i8, i64, i8, i32 }
%struct.anon.6 = type { ptr, %struct.QemuThread, i8, %struct.QemuSemaphore, %struct.QemuSemaphore }
%struct.timeval = type { i64, i64 }

@trace_events_enabled_count = external global i32, align 4
@message_with_timestamp = external global i8, align 1
@qemu_loglevel = external global i32, align 4
@.str.106 = private unnamed_addr constant [22 x i8] c"migration-tls-preempt\00", align 1
@.str.107 = private unnamed_addr constant [12 x i8] c"qio-channel\00", align 1
@.str.108 = private unnamed_addr constant [99 x i8] c"/home/dtcxzyw/WorkSpace/Projects/compilers/llvm-opt-benchmark/bench/qemu/qemu/include/io/channel.h\00", align 1
@__func__.QIO_CHANNEL = private unnamed_addr constant [12 x i8] c"QIO_CHANNEL\00", align 1
@_TRACE_POSTCOPY_PREEMPT_TLS_HANDSHAKE_DSTATE = external global i16, align 2
@.str.109 = private unnamed_addr constant [46 x i8] c"%d@%zu.%06zu:postcopy_preempt_tls_handshake \0A\00", align 1
@.str.110 = private unnamed_addr constant [33 x i8] c"postcopy_preempt_tls_handshake \0A\00", align 1

; Function Attrs: nounwind sspstrong uwtable
define internal zeroext i1 @qemu_loglevel_mask(i32 noundef %mask) #0 {
entry:
  %mask.addr = alloca i32, align 4
  store i32 %mask, ptr %mask.addr, align 4
  %0 = load i32, ptr @qemu_loglevel, align 4
  %1 = load i32, ptr %mask.addr, align 4
  %and = and i32 %0, %1
  %cmp = icmp ne i32 %and, 0
  ret i1 %cmp
}

; Function Attrs: nounwind sspstrong uwtable
define internal void @glib_autoptr_clear_QIOChannel(ptr noundef %_ptr) #0 {
entry:
  %_ptr.addr = alloca ptr, align 8
  store ptr %_ptr, ptr %_ptr.addr, align 8
  %0 = load ptr, ptr %_ptr.addr, align 8
  %tobool = icmp ne ptr %0, null
  br i1 %tobool, label %if.then, label %if.end

if.then:                                          ; preds = %entry
  %1 = load ptr, ptr %_ptr.addr, align 8
  call void @object_unref(ptr noundef %1)
  br label %if.end

if.end:                                           ; preds = %if.then, %entry
  ret void
}

; Function Attrs: nounwind sspstrong uwtable
define internal void @_nocheck__trace_postcopy_preempt_tls_handshake() #0 {
entry:
  %_now = alloca %struct.timeval, align 8
  %0 = load i32, ptr @trace_events_enabled_count, align 4
  %tobool = icmp ne i32 %0, 0
  %lnot = xor i1 %tobool, true
  %lnot1 = xor i1 %lnot, true
  %lnot.ext = zext i1 %lnot1 to i32
  %conv = sext i32 %lnot.ext to i64
  %tobool2 = icmp ne i64 %conv, 0
  br i1 %tobool2, label %land.lhs.true, label %if.end11

land.lhs.true:                                    ; preds = %entry
  %1 = load i16, ptr @_TRACE_POSTCOPY_PREEMPT_TLS_HANDSHAKE_DSTATE, align 2
  %conv3 = zext i16 %1 to i32
  %tobool4 = icmp ne i32 %conv3, 0
  br i1 %tobool4, label %land.lhs.true5, label %if.end11

land.lhs.true5:                                   ; preds = %land.lhs.true
  %call = call zeroext i1 @qemu_loglevel_mask(i32 noundef 32768)
  br i1 %call, label %if.then, label %if.end11

if.then:                                          ; preds = %land.lhs.true5
  %2 = load i8, ptr @message_with_timestamp, align 1
  %tobool7 = trunc i8 %2 to i1
  br i1 %tobool7, label %if.then8, label %if.else

if.then8:                                         ; preds = %if.then
  %call9 = call i32 @gettimeofday(ptr noundef %_now, ptr noundef null) #11
  %call10 = call i32 @qemu_get_thread_id()
  %tv_sec = getelementptr inbounds %struct.timeval, ptr %_now, i32 0, i32 0
  %3 = load i64, ptr %tv_sec, align 8
  %tv_usec = getelementptr inbounds %struct.timeval, ptr %_now, i32 0, i32 1
  %4 = load i64, ptr %tv_usec, align 8
  call void (ptr, ...) @qemu_log(ptr noundef @.str.109, i32 noundef %call10, i64 noundef %3, i64 noundef %4)
  br label %if.end

if.else:                                          ; preds = %if.then
  call void (ptr, ...) @qemu_log(ptr noundef @.str.110)
  br label %if.end

if.end:                                           ; preds = %if.else, %if.then8
  br label %if.end11

if.end11:                                         ; preds = %if.end, %land.lhs.true5, %land.lhs.true, %entry
  ret void
}

; Function Attrs: nounwind sspstrong uwtable
define internal void @glib_autoptr_cleanup_QIOChannel(ptr noundef %_ptr) #0 {
entry:
  %_ptr.addr = alloca ptr, align 8
  store ptr %_ptr, ptr %_ptr.addr, align 8
  %0 = load ptr, ptr %_ptr.addr, align 8
  %1 = load ptr, ptr %0, align 8
  call void @glib_autoptr_clear_QIOChannel(ptr noundef %1)
  ret void
}

; Function Attrs: nounwind sspstrong uwtable
define internal void @trace_postcopy_preempt_tls_handshake() #0 {
entry:
  call void @_nocheck__trace_postcopy_preempt_tls_handshake()
  ret void
}

; Function Attrs: nounwind sspstrong uwtable
define internal ptr @QIO_CHANNEL(ptr noundef %obj) #0 {
entry:
  %obj.addr = alloca ptr, align 8
  store ptr %obj, ptr %obj.addr, align 8
  %0 = load ptr, ptr %obj.addr, align 8
  %call = call ptr @object_dynamic_cast_assert(ptr noundef %0, ptr noundef @.str.107, ptr noundef @.str.108, i32 noundef 30, ptr noundef @__func__.QIO_CHANNEL)
  ret ptr %call
}

; Function Attrs: nounwind sspstrong uwtable
define internal void @postcopy_preempt_send_channel_new(ptr noundef %task, ptr noundef %opaque) #0 {
entry:
  %task.addr = alloca ptr, align 8
  %opaque.addr = alloca ptr, align 8
  %ioc = alloca ptr, align 8
  %s = alloca ptr, align 8
  %tioc = alloca ptr, align 8
  %local_err = alloca ptr, align 8
  %cleanup.dest.slot = alloca i32, align 4
  store ptr %task, ptr %task.addr, align 8
  store ptr %opaque, ptr %opaque.addr, align 8
  %0 = load ptr, ptr %task.addr, align 8
  %call = call ptr @qio_task_get_source(ptr noundef %0)
  %call1 = call ptr @QIO_CHANNEL(ptr noundef %call)
  store ptr %call1, ptr %ioc, align 8
  %1 = load ptr, ptr %opaque.addr, align 8
  store ptr %1, ptr %s, align 8
  store ptr null, ptr %local_err, align 8
  %2 = load ptr, ptr %task.addr, align 8
  %call2 = call zeroext i1 @qio_task_propagate_error(ptr noundef %2, ptr noundef %local_err)
  br i1 %call2, label %if.then, label %if.end

if.then:                                          ; preds = %entry
  br label %out

if.end:                                           ; preds = %entry
  %3 = load ptr, ptr %ioc, align 8
  %call3 = call zeroext i1 @migrate_channel_requires_tls_upgrade(ptr noundef %3)
  br i1 %call3, label %if.then4, label %if.end9

if.then4:                                         ; preds = %if.end
  %4 = load ptr, ptr %ioc, align 8
  %5 = load ptr, ptr %s, align 8
  %hostname = getelementptr inbounds %struct.MigrationState, ptr %5, i32 0, i32 48
  %6 = load ptr, ptr %hostname, align 8
  %call5 = call ptr @migration_tls_client_create(ptr noundef %4, ptr noundef %6, ptr noundef %local_err)
  store ptr %call5, ptr %tioc, align 8
  %7 = load ptr, ptr %tioc, align 8
  %tobool = icmp ne ptr %7, null
  br i1 %tobool, label %if.end7, label %if.then6

if.then6:                                         ; preds = %if.then4
  br label %out

if.end7:                                          ; preds = %if.then4
  call void @trace_postcopy_preempt_tls_handshake()
  %8 = load ptr, ptr %tioc, align 8
  %call8 = call ptr @QIO_CHANNEL(ptr noundef %8)
  call void @qio_channel_set_name(ptr noundef %call8, ptr noundef @.str.106)
  %9 = load ptr, ptr %tioc, align 8
  %10 = load ptr, ptr %s, align 8
  call void @qio_channel_tls_handshake(ptr noundef %9, ptr noundef @postcopy_preempt_tls_handshake, ptr noundef %10, ptr noundef null, ptr noundef null)
  store i32 1, ptr %cleanup.dest.slot, align 4
  br label %cleanup

if.end9:                                          ; preds = %if.end
  br label %out

out:                                              ; preds = %if.end9, %if.then6, %if.then
  %11 = load ptr, ptr %s, align 8
  %12 = load ptr, ptr %ioc, align 8
  %13 = load ptr, ptr %local_err, align 8
  call void @postcopy_preempt_send_channel_done(ptr noundef %11, ptr noundef %12, ptr noundef %13)
  store i32 0, ptr %cleanup.dest.slot, align 4
  br label %cleanup

cleanup:                                          ; preds = %out, %if.end7
  call void @glib_autoptr_cleanup_QIOChannel(ptr noundef %ioc)
  %cleanup.dest = load i32, ptr %cleanup.dest.slot, align 4
  switch i32 %cleanup.dest, label %unreachable [
    i32 0, label %cleanup.cont
    i32 1, label %cleanup.cont
  ]

cleanup.cont:                                     ; preds = %cleanup, %cleanup
  ret void

unreachable:                                      ; preds = %cleanup
  unreachable
}