; Function Attrs: nounwind sspstrong uwtable
define internal void @postcopy_preempt_send_channel_new(ptr noundef %task, ptr noundef %opaque) #0 {
entry:
  %_now.i.i = alloca %struct.timeval, align 8
  %local_err = alloca ptr, align 8
  %call = tail call ptr @qio_task_get_source(ptr noundef %task) #16
  %call.i = tail call ptr @object_dynamic_cast_assert(ptr noundef %call, ptr noundef nonnull @.str.107, ptr noundef nonnull @.str.108, i32 noundef 30, ptr noundef nonnull @__func__.QIO_CHANNEL) #16
  store ptr null, ptr %local_err, align 8
  %call2 = call zeroext i1 @qio_task_propagate_error(ptr noundef %task, ptr noundef nonnull %local_err) #16
  br i1 %call2, label %out, label %if.end

if.end:                                           ; preds = %entry
  %call3 = call zeroext i1 @migrate_channel_requires_tls_upgrade(ptr noundef %call.i) #16
  br i1 %call3, label %if.then4, label %out

if.then4:                                         ; preds = %if.end
  %hostname = getelementptr inbounds nuw i8, ptr %opaque, i64 1664
  %0 = load ptr, ptr %hostname, align 8
  %call5 = call ptr @migration_tls_client_create(ptr noundef %call.i, ptr noundef %0, ptr noundef nonnull %local_err) #16
  %tobool.not = icmp eq ptr %call5, null
  br i1 %tobool.not, label %out, label %if.end7

if.end7:                                          ; preds = %if.then4
  call void @llvm.lifetime.start.p0(i64 16, ptr nonnull %_now.i.i)
  %1 = load i32, ptr @trace_events_enabled_count, align 4
  %tobool.i.i = icmp ne i32 %1, 0
  %2 = load i16, ptr @_TRACE_POSTCOPY_PREEMPT_TLS_HANDSHAKE_DSTATE, align 2
  %tobool4.i.i = icmp ne i16 %2, 0
  %or.cond.i.i = select i1 %tobool.i.i, i1 %tobool4.i.i, i1 false
  br i1 %or.cond.i.i, label %land.lhs.true5.i.i, label %trace_postcopy_preempt_tls_handshake.exit

land.lhs.true5.i.i:                               ; preds = %if.end7
  %3 = load i32, ptr @qemu_loglevel, align 4
  %and.i.i.i = and i32 %3, 32768
  %cmp.i.not.i.i = icmp eq i32 %and.i.i.i, 0
  br i1 %cmp.i.not.i.i, label %trace_postcopy_preempt_tls_handshake.exit, label %if.then.i.i

if.then.i.i:                                      ; preds = %land.lhs.true5.i.i
  %4 = load i8, ptr @message_with_timestamp, align 1
  %tobool7.i.i = trunc i8 %4 to i1
  br i1 %tobool7.i.i, label %if.then8.i.i, label %if.else.i.i

if.then8.i.i:                                     ; preds = %if.then.i.i
  %call9.i.i = call i32 @gettimeofday(ptr noundef nonnull %_now.i.i, ptr noundef null) #16
  %call10.i.i = call i32 @qemu_get_thread_id() #16
  %5 = load i64, ptr %_now.i.i, align 8
  %tv_usec.i.i = getelementptr inbounds nuw i8, ptr %_now.i.i, i64 8
  %6 = load i64, ptr %tv_usec.i.i, align 8
  call void (ptr, ...) @qemu_log(ptr noundef nonnull @.str.109, i32 noundef %call10.i.i, i64 noundef %5, i64 noundef %6) #16
  br label %trace_postcopy_preempt_tls_handshake.exit

if.else.i.i:                                      ; preds = %if.then.i.i
  call void (ptr, ...) @qemu_log(ptr noundef nonnull @.str.110) #16
  br label %trace_postcopy_preempt_tls_handshake.exit

trace_postcopy_preempt_tls_handshake.exit:        ; preds = %if.end7, %land.lhs.true5.i.i, %if.then8.i.i, %if.else.i.i
  call void @llvm.lifetime.end.p0(i64 16, ptr nonnull %_now.i.i)
  %call.i6 = call ptr @object_dynamic_cast_assert(ptr noundef nonnull %call5, ptr noundef nonnull @.str.107, ptr noundef nonnull @.str.108, i32 noundef 30, ptr noundef nonnull @__func__.QIO_CHANNEL) #16
  call void @qio_channel_set_name(ptr noundef %call.i6, ptr noundef nonnull @.str.106) #16
  call void @qio_channel_tls_handshake(ptr noundef nonnull %call5, ptr noundef nonnull @postcopy_preempt_tls_handshake, ptr noundef nonnull %opaque, ptr noundef null, ptr noundef null) #16
  br label %cleanup

out:                                              ; preds = %if.end, %if.then4, %entry
  %7 = load ptr, ptr %local_err, align 8
  call fastcc void @postcopy_preempt_send_channel_done(ptr noundef %opaque, ptr noundef %call.i, ptr noundef %7)
  br label %cleanup

cleanup:                                          ; preds = %out, %trace_postcopy_preempt_tls_handshake.exit
  %tobool.not.i.i = icmp eq ptr %call.i, null
  br i1 %tobool.not.i.i, label %glib_autoptr_cleanup_QIOChannel.exit, label %if.then.i.i7

if.then.i.i7:                                     ; preds = %cleanup
  call void @object_unref(ptr noundef nonnull %call.i) #16
  br label %glib_autoptr_cleanup_QIOChannel.exit

glib_autoptr_cleanup_QIOChannel.exit:             ; preds = %cleanup, %if.then.i.i7
  ret void
}